; Function Attrs: nounwind uwtable
define zeroext range(i8 0, 2) i8 @l_Std_DHashMap_Internal_AssocList_contains___at_Lake_importModulesUsingCache___spec__1(ptr noundef readonly captures(none) %0, ptr noundef %1) local_unnamed_addr #0 {
  %3 = getelementptr i8, ptr %0, i64 8
  br label %.backedge

.backedge:                                        ; preds = %.backedge.backedge, %2
  %.021 = phi ptr [ %1, %2 ], [ %16, %.backedge.backedge ]
  %4 = ptrtoint ptr %.021 to i64
  %5 = and i64 %4, 1
  %.not.i30 = icmp eq i64 %5, 0
  br i1 %.not.i30, label %9, label %6

6:                                                ; preds = %.backedge
  %7 = lshr i64 %4, 1
  %8 = trunc i64 %7 to i32
  br label %lean_obj_tag.exit

9:                                                ; preds = %.backedge
  %10 = getelementptr i8, ptr %.021, i64 4
  %.val.i = load i32, ptr %10, align 4
  %11 = lshr i32 %.val.i, 24
  br label %lean_obj_tag.exit

lean_obj_tag.exit:                                ; preds = %6, %9
  %.0.i31 = phi i32 [ %8, %6 ], [ %11, %9 ]
  %12 = icmp eq i32 %.0.i31, 0
  br i1 %12, label %24, label %lean_dec.exit26

lean_dec.exit26:                                  ; preds = %lean_obj_tag.exit
  %13 = getelementptr inbounds nuw i8, ptr %.021, i64 8
  %14 = load ptr, ptr %13, align 8, !tbaa !4
  %15 = getelementptr inbounds nuw i8, ptr %.021, i64 24
  %16 = load ptr, ptr %15, align 8, !tbaa !4
  %17 = getelementptr i8, ptr %14, i64 8
  %.val29 = load i64, ptr %17, align 8, !tbaa !13
  %18 = shl i64 %.val29, 1
  %.val = load i64, ptr %3, align 8, !tbaa !13
  %19 = shl i64 %.val, 1
  %.not = icmp eq i64 %18, %19
  br i1 %.not, label %20, label %.backedge.backedge

.backedge.backedge:                               ; preds = %lean_dec.exit26, %20
  br label %.backedge

20:                                               ; preds = %lean_dec.exit26
  %21 = or disjoint i64 %18, 1
  %22 = inttoptr i64 %21 to ptr
  %23 = tail call zeroext i8 @l_Array_isEqvAux___at_Lake_importModulesUsingCache___spec__2(ptr nonnull poison, ptr nonnull poison, ptr nonnull poison, ptr noundef nonnull %14, ptr noundef nonnull %0, ptr noundef nonnull %22, ptr nonnull poison)
  %.not32 = icmp eq i8 %23, 0
  br i1 %.not32, label %.backedge.backedge, label %24

24:                                               ; preds = %20, %lean_obj_tag.exit
  %.1 = phi i8 [ 0, %lean_obj_tag.exit ], [ 1, %20 ]
  ret i8 %.1
}